; Function Attrs: nounwind sspstrong uwtable
define internal noundef i64 @ossl_x509stctx_set_time(i64 noundef %0, i64 noundef returned %1) #0 {
  %3 = tail call i64 @rb_Integer(i64 noundef %1) #5
  %4 = and i64 %3, 1
  %.not.i = icmp eq i64 %4, 0
  br i1 %.not.i, label %7, label %5

5:                                                ; preds = %2
  %6 = ashr i64 %3, 1
  br label %rb_num2long_inline.exit

7:                                                ; preds = %2
  %8 = tail call i64 @rb_num2long(i64 noundef %3) #5
  br label %rb_num2long_inline.exit

rb_num2long_inline.exit:                          ; preds = %5, %7
  %.0.i = phi i64 [ %6, %5 ], [ %8, %7 ]
  %9 = tail call ptr @rb_check_typeddata(i64 noundef %0, ptr noundef nonnull @ossl_x509stctx_type) #5
  %.not = icmp eq ptr %9, null
  br i1 %.not, label %10, label %12

10:                                               ; preds = %rb_num2long_inline.exit
  %11 = load i64, ptr @rb_eRuntimeError, align 8, !tbaa !20
  tail call void (i64, ptr, ...) @ossl_raise(i64 noundef %11, ptr noundef nonnull @.str.52) #7
  unreachable

12:                                               ; preds = %rb_num2long_inline.exit
  tail call void @X509_STORE_CTX_set_time(ptr noundef nonnull %9, i64 noundef 0, i64 noundef %.0.i) #5
  ret i64 %1
}